target datalayout = "e-m:e-p270:32:32-p271:32:32-p272:64:64-i64:64-i128:128-f80:128-n8:16:32:64-S128"
target triple = "x86_64-pc-linux-gnu"

; Function Attrs: nounwind uwtable
define void @stbsp__lead_sign(i32 noundef %0, ptr noundef %1) #0 {
  %3 = alloca i32, align 4
  %4 = alloca ptr, align 8
  store i32 %0, ptr %3, align 4, !tbaa !6
  store ptr %1, ptr %4, align 8, !tbaa !8
  %5 = load ptr, ptr %4, align 8, !tbaa !8
  %6 = getelementptr inbounds i8, ptr %5, i64 0
  store i8 0, ptr %6, align 1, !tbaa !3
  %7 = load i32, ptr %3, align 4, !tbaa !6
  %8 = and i32 %7, 128
  %9 = icmp ne i32 %8, 0
  br i1 %9, label %10, label %15

10:                                               ; preds = %2
  %11 = load ptr, ptr %4, align 8, !tbaa !8
  %12 = getelementptr inbounds i8, ptr %11, i64 0
  store i8 1, ptr %12, align 1, !tbaa !3
  %13 = load ptr, ptr %4, align 8, !tbaa !8
  %14 = getelementptr inbounds i8, ptr %13, i64 1
  store i8 45, ptr %14, align 1, !tbaa !3
  br label %35

15:                                               ; preds = %2
  %16 = load i32, ptr %3, align 4, !tbaa !6
  %17 = and i32 %16, 4
  %18 = icmp ne i32 %17, 0
  br i1 %18, label %19, label %24

19:                                               ; preds = %15
  %20 = load ptr, ptr %4, align 8, !tbaa !8
  %21 = getelementptr inbounds i8, ptr %20, i64 0
  store i8 1, ptr %21, align 1, !tbaa !3
  %22 = load ptr, ptr %4, align 8, !tbaa !8
  %23 = getelementptr inbounds i8, ptr %22, i64 1
  store i8 32, ptr %23, align 1, !tbaa !3
  br label %34

24:                                               ; preds = %15
  %25 = load i32, ptr %3, align 4, !tbaa !6
  %26 = and i32 %25, 2
  %27 = icmp ne i32 %26, 0
  br i1 %27, label %28, label %33

28:                                               ; preds = %24
  %29 = load ptr, ptr %4, align 8, !tbaa !8
  %30 = getelementptr inbounds i8, ptr %29, i64 0
  store i8 1, ptr %30, align 1, !tbaa !3
  %31 = load ptr, ptr %4, align 8, !tbaa !8
  %32 = getelementptr inbounds i8, ptr %31, i64 1
  store i8 43, ptr %32, align 1, !tbaa !3
  br label %33

33:                                               ; preds = %28, %24
  br label %34

34:                                               ; preds = %33, %19
  br label %35

35:                                               ; preds = %34, %10
  ret void
}