; Function Attrs: mustprogress nofree norecurse nosync nounwind willreturn memory(argmem: write) uwtable
define void @stbsp__lead_sign(i32 noundef %0, ptr noundef writeonly captures(none) initializes((0, 1)) %1) local_unnamed_addr #1 {
  store i8 0, ptr %1, align 1, !tbaa !3
  %3 = and i32 %0, 128
  %.not = icmp eq i32 %3, 0
  br i1 %.not, label %4, label %.sink.split

4:                                                ; preds = %2
  %5 = and i32 %0, 4
  %.not9 = icmp eq i32 %5, 0
  br i1 %.not9, label %6, label %.sink.split

6:                                                ; preds = %4
  %7 = and i32 %0, 2
  %.not10 = icmp eq i32 %7, 0
  br i1 %.not10, label %9, label %.sink.split

.sink.split:                                      ; preds = %6, %4, %2
  %.sink = phi i8 [ 45, %2 ], [ 32, %4 ], [ 43, %6 ]
  store i8 1, ptr %1, align 1, !tbaa !3
  %8 = getelementptr inbounds nuw i8, ptr %1, i64 1
  store i8 %.sink, ptr %8, align 1, !tbaa !3
  br label %9

9:                                                ; preds = %.sink.split, %6
  ret void
}